target datalayout = "e-m:e-p270:32:32-p271:32:32-p272:64:64-i64:64-i128:128-f80:128-n8:16:32:64-S128"
target triple = "x86_64-pc-linux-gnu"

@pg_file_create_mode = external global i32, align 4
@.str.3 = private unnamed_addr constant [67 x i8] c"error while copying relation \22%s.%s\22: could not open file \22%s\22: %m\00", align 1
@.str.4 = private unnamed_addr constant [69 x i8] c"error while copying relation \22%s.%s\22: could not create file \22%s\22: %m\00", align 1
@.str.5 = private unnamed_addr constant [67 x i8] c"error while copying relation \22%s.%s\22: could not read file \22%s\22: %m\00", align 1
@.str.6 = private unnamed_addr constant [68 x i8] c"error while copying relation \22%s.%s\22: could not write file \22%s\22: %m\00", align 1

; Function Attrs: nounwind uwtable
define dso_local void @copyFile(ptr noundef %0, ptr noundef %1, ptr noundef %2, ptr noundef %3) #0 {
  %5 = alloca ptr, align 8
  %6 = alloca ptr, align 8
  %7 = alloca ptr, align 8
  %8 = alloca ptr, align 8
  %9 = alloca i32, align 4
  %10 = alloca i32, align 4
  %11 = alloca ptr, align 8
  %12 = alloca i64, align 8
  %13 = alloca i32, align 4
  store ptr %0, ptr %5, align 8
  store ptr %1, ptr %6, align 8
  store ptr %2, ptr %7, align 8
  store ptr %3, ptr %8, align 8
  call void @llvm.lifetime.start.p0(i64 4, ptr %9) #7
  call void @llvm.lifetime.start.p0(i64 4, ptr %10) #7
  call void @llvm.lifetime.start.p0(i64 8, ptr %11) #7
  %14 = load ptr, ptr %5, align 8
  %15 = call i32 (ptr, i32, ...) @open(ptr noundef %14, i32 noundef 0, i32 noundef 0)
  store i32 %15, ptr %9, align 4
  %16 = icmp slt i32 %15, 0
  br i1 %16, label %17, label %21

17:                                               ; preds = %4
  %18 = load ptr, ptr %7, align 8
  %19 = load ptr, ptr %8, align 8
  %20 = load ptr, ptr %5, align 8
  call void (ptr, ...) @pg_fatal(ptr noundef @.str.3, ptr noundef %18, ptr noundef %19, ptr noundef %20) #8
  unreachable

21:                                               ; preds = %4
  %22 = load ptr, ptr %6, align 8
  %23 = load i32, ptr @pg_file_create_mode, align 4
  %24 = call i32 (ptr, i32, ...) @open(ptr noundef %22, i32 noundef 194, i32 noundef %23)
  store i32 %24, ptr %10, align 4
  %25 = icmp slt i32 %24, 0
  br i1 %25, label %26, label %30

26:                                               ; preds = %21
  %27 = load ptr, ptr %7, align 8
  %28 = load ptr, ptr %8, align 8
  %29 = load ptr, ptr %6, align 8
  call void (ptr, ...) @pg_fatal(ptr noundef @.str.4, ptr noundef %27, ptr noundef %28, ptr noundef %29) #8
  unreachable

30:                                               ; preds = %21
  %31 = call ptr @pg_malloc(i64 noundef 409600)
  store ptr %31, ptr %11, align 8
  br label %32

32:                                               ; preds = %68, %30
  br label %33

33:                                               ; preds = %32
  call void @llvm.lifetime.start.p0(i64 8, ptr %12) #7
  %34 = load i32, ptr %9, align 4
  %35 = load ptr, ptr %11, align 8
  %36 = call i64 @read(i32 noundef %34, ptr noundef %35, i64 noundef 409600)
  store i64 %36, ptr %12, align 8
  %37 = load i64, ptr %12, align 8
  %38 = icmp slt i64 %37, 0
  br i1 %38, label %39, label %43

39:                                               ; preds = %33
  %40 = load ptr, ptr %7, align 8
  %41 = load ptr, ptr %8, align 8
  %42 = load ptr, ptr %5, align 8
  call void (ptr, ...) @pg_fatal(ptr noundef @.str.5, ptr noundef %40, ptr noundef %41, ptr noundef %42) #8
  unreachable

43:                                               ; preds = %33
  %44 = load i64, ptr %12, align 8
  %45 = icmp eq i64 %44, 0
  br i1 %45, label %46, label %47

46:                                               ; preds = %43
  store i32 3, ptr %13, align 4
  br label %66

47:                                               ; preds = %43
  %48 = call ptr @__errno_location() #9
  store i32 0, ptr %48, align 4
  %49 = load i32, ptr %10, align 4
  %50 = load ptr, ptr %11, align 8
  %51 = load i64, ptr %12, align 8
  %52 = call i64 @write(i32 noundef %49, ptr noundef %50, i64 noundef %51)
  %53 = load i64, ptr %12, align 8
  %54 = icmp ne i64 %52, %53
  br i1 %54, label %55, label %65

55:                                               ; preds = %47
  %56 = call ptr @__errno_location() #9
  %57 = load i32, ptr %56, align 4
  %58 = icmp eq i32 %57, 0
  br i1 %58, label %59, label %61

59:                                               ; preds = %55
  %60 = call ptr @__errno_location() #9
  store i32 28, ptr %60, align 4
  br label %61

61:                                               ; preds = %59, %55
  %62 = load ptr, ptr %7, align 8
  %63 = load ptr, ptr %8, align 8
  %64 = load ptr, ptr %6, align 8
  call void (ptr, ...) @pg_fatal(ptr noundef @.str.6, ptr noundef %62, ptr noundef %63, ptr noundef %64) #8
  unreachable

65:                                               ; preds = %47
  store i32 0, ptr %13, align 4
  br label %66

66:                                               ; preds = %65, %46
  call void @llvm.lifetime.end.p0(i64 8, ptr %12) #7
  %67 = load i32, ptr %13, align 4
  switch i32 %67, label %75 [
    i32 0, label %68
    i32 3, label %69
  ]

68:                                               ; preds = %66
  br label %32

69:                                               ; preds = %66
  %70 = load ptr, ptr %11, align 8
  call void @pg_free(ptr noundef %70)
  %71 = load i32, ptr %9, align 4
  %72 = call i32 @close(i32 noundef %71)
  %73 = load i32, ptr %10, align 4
  %74 = call i32 @close(i32 noundef %73)
  call void @llvm.lifetime.end.p0(i64 8, ptr %11) #7
  call void @llvm.lifetime.end.p0(i64 4, ptr %10) #7
  call void @llvm.lifetime.end.p0(i64 4, ptr %9) #7
  ret void

75:                                               ; preds = %66
  unreachable
}