; Function Attrs: nounwind uwtable
define dso_local void @copyFile(ptr noundef %0, ptr noundef %1, ptr noundef %2, ptr noundef %3) local_unnamed_addr #2 {
  %5 = tail call i32 (ptr, i32, ...) @open(ptr noundef %0, i32 noundef 0, i32 noundef 0) #10
  %6 = icmp slt i32 %5, 0
  br i1 %6, label %7, label %8

7:                                                ; preds = %4
  tail call void (ptr, ...) @pg_fatal(ptr noundef nonnull @.str.3, ptr noundef %2, ptr noundef %3, ptr noundef %0) #11
  unreachable

8:                                                ; preds = %4
  %9 = load i32, ptr @pg_file_create_mode, align 4
  %10 = tail call i32 (ptr, i32, ...) @open(ptr noundef %1, i32 noundef 194, i32 noundef %9) #10
  %11 = icmp slt i32 %10, 0
  br i1 %11, label %12, label %13

12:                                               ; preds = %8
  tail call void (ptr, ...) @pg_fatal(ptr noundef nonnull @.str.4, ptr noundef %2, ptr noundef %3, ptr noundef %1) #11
  unreachable

13:                                               ; preds = %8
  %14 = tail call ptr @pg_malloc(i64 noundef 409600) #10
  br label %15

15:                                               ; preds = %21, %13
  %16 = tail call i64 @read(i32 noundef %5, ptr noundef %14, i64 noundef 409600) #10
  %17 = icmp slt i64 %16, 0
  br i1 %17, label %18, label %19

18:                                               ; preds = %15
  tail call void (ptr, ...) @pg_fatal(ptr noundef nonnull @.str.5, ptr noundef %2, ptr noundef %3, ptr noundef %0) #11
  unreachable

19:                                               ; preds = %15
  %20 = icmp eq i64 %16, 0
  br i1 %20, label %29, label %21

21:                                               ; preds = %19
  %22 = tail call ptr @__errno_location() #12
  store i32 0, ptr %22, align 4
  %23 = tail call i64 @write(i32 noundef %10, ptr noundef %14, i64 noundef %16) #10
  %.not = icmp eq i64 %23, %16
  br i1 %.not, label %15, label %24

24:                                               ; preds = %21
  %25 = load i32, ptr %22, align 4
  %26 = icmp eq i32 %25, 0
  br i1 %26, label %27, label %28

27:                                               ; preds = %24
  store i32 28, ptr %22, align 4
  br label %28

28:                                               ; preds = %27, %24
  tail call void (ptr, ...) @pg_fatal(ptr noundef nonnull @.str.6, ptr noundef %2, ptr noundef %3, ptr noundef %1) #11
  unreachable

29:                                               ; preds = %19
  tail call void @pg_free(ptr noundef %14) #10
  %30 = tail call i32 @close(i32 noundef %5) #10
  %31 = tail call i32 @close(i32 noundef %10) #10
  ret void
}